target datalayout = "e-m:e-p270:32:32-p271:32:32-p272:64:64-i64:64-i128:128-f80:128-n8:16:32:64-S128"
target triple = "x86_64-pc-linux-gnu"

%"class.icu_77::UnicodeString" = type { %"class.icu_77::Replaceable", %"union.icu_77::UnicodeString::StackBufferOrFields" }
%"class.icu_77::Replaceable" = type { %"class.icu_77::UObject" }
%"class.icu_77::UObject" = type { ptr }
%"union.icu_77::UnicodeString::StackBufferOrFields" = type { %struct.anon.0, [32 x i8] }
%struct.anon.0 = type { i16, i32, i32, ptr }
%"class.icu_77::SimpleDateFormat" = type { %"class.icu_77::DateFormat", %"class.icu_77::UnicodeString", %"class.icu_77::UnicodeString", %"class.icu_77::UnicodeString", %"class.icu_77::Locale", ptr, ptr, double, i8, i8, i8, i32, ptr, ptr, i8, ptr }
%"class.icu_77::DateFormat" = type { %"class.icu_77::Format", ptr, ptr, %"class.icu_77::EnumSet", i32 }
%"class.icu_77::Format" = type { %"class.icu_77::UObject", ptr, ptr }
%"class.icu_77::EnumSet" = type { i32 }
%"class.icu_77::Locale" = type <{ %"class.icu_77::UObject", [12 x i8], [6 x i8], [4 x i8], [2 x i8], i32, [4 x i8], ptr, [157 x i8], [3 x i8], ptr, i8, [7 x i8] }>

; Function Attrs: inlinehint mustprogress nounwind uwtable
define internal noundef signext i8 @_ZL9U_SUCCESS10UErrorCode(i32 noundef %0) #2 {
  %2 = alloca i32, align 4
  store i32 %0, ptr %2, align 4, !tbaa !15
  %3 = load i32, ptr %2, align 4, !tbaa !15
  %4 = icmp sle i32 %3, 0
  %5 = zext i1 %4 to i8
  ret i8 %5
}

; Function Attrs: inlinehint mustprogress uwtable
define linkonce_odr void @_ZN6icu_778Calendar7setTimeEdR10UErrorCode(ptr noundef nonnull align 8 dereferenceable(192) %0, double noundef %1, ptr noundef nonnull align 4 dereferenceable(4) %2) #3 comdat align 2 {
  %4 = alloca ptr, align 8
  %5 = alloca double, align 8
  %6 = alloca ptr, align 8
  store ptr %0, ptr %4, align 8, !tbaa !150
  store double %1, ptr %5, align 8, !tbaa !149
  store ptr %2, ptr %6, align 8, !tbaa !22
  %7 = load ptr, ptr %4, align 8
  %8 = load double, ptr %5, align 8, !tbaa !149
  %9 = load ptr, ptr %6, align 8, !tbaa !22
  call void @_ZN6icu_778Calendar15setTimeInMillisEdR10UErrorCode(ptr noundef nonnull align 8 dereferenceable(192) %7, double noundef %8, ptr noundef nonnull align 4 dereferenceable(4) %9)
  ret void
}

; Function Attrs: inlinehint mustprogress nounwind uwtable
define internal noundef signext i8 @_ZL9U_FAILURE10UErrorCode(i32 noundef %0) #2 {
  %2 = alloca i32, align 4
  store i32 %0, ptr %2, align 4, !tbaa !15
  %3 = load i32, ptr %2, align 4, !tbaa !15
  %4 = icmp sgt i32 %3, 0
  %5 = zext i1 %4 to i8
  ret i8 %5
}

; Function Attrs: mustprogress uwtable
define void @_ZN6icu_7716SimpleDateFormat26parseAmbiguousDatesAsAfterEdR10UErrorCode(ptr noundef nonnull align 8 dereferenceable(528) %0, double noundef %1, ptr noundef nonnull align 4 dereferenceable(4) %2) #1 align 2 {
  %4 = alloca ptr, align 8
  %5 = alloca double, align 8
  %6 = alloca ptr, align 8
  store ptr %0, ptr %4, align 8, !tbaa !23
  store double %1, ptr %5, align 8, !tbaa !149
  store ptr %2, ptr %6, align 8, !tbaa !22
  %7 = load ptr, ptr %4, align 8
  %8 = load ptr, ptr %6, align 8, !tbaa !22
  %9 = load i32, ptr %8, align 4, !tbaa !15
  %10 = call noundef signext i8 @_ZL9U_FAILURE10UErrorCode(i32 noundef %9)
  %11 = icmp ne i8 %10, 0
  br i1 %11, label %12, label %13

12:                                               ; preds = %3
  br label %37

13:                                               ; preds = %3
  %14 = getelementptr inbounds nuw %"class.icu_77::DateFormat", ptr %7, i32 0, i32 1
  %15 = load ptr, ptr %14, align 8, !tbaa !79
  %16 = icmp ne ptr %15, null
  br i1 %16, label %19, label %17

17:                                               ; preds = %13
  %18 = load ptr, ptr %6, align 8, !tbaa !22
  store i32 1, ptr %18, align 4, !tbaa !15
  br label %37

19:                                               ; preds = %13
  %20 = getelementptr inbounds nuw %"class.icu_77::DateFormat", ptr %7, i32 0, i32 1
  %21 = load ptr, ptr %20, align 8, !tbaa !79
  %22 = load double, ptr %5, align 8, !tbaa !149
  %23 = load ptr, ptr %6, align 8, !tbaa !22
  call void @_ZN6icu_778Calendar7setTimeEdR10UErrorCode(ptr noundef nonnull align 8 dereferenceable(192) %21, double noundef %22, ptr noundef nonnull align 4 dereferenceable(4) %23)
  %24 = load ptr, ptr %6, align 8, !tbaa !22
  %25 = load i32, ptr %24, align 4, !tbaa !15
  %26 = call noundef signext i8 @_ZL9U_SUCCESS10UErrorCode(i32 noundef %25)
  %27 = icmp ne i8 %26, 0
  br i1 %27, label %28, label %37

28:                                               ; preds = %19
  %29 = getelementptr inbounds nuw %"class.icu_77::SimpleDateFormat", ptr %7, i32 0, i32 14
  store i8 1, ptr %29, align 8, !tbaa !86
  %30 = load double, ptr %5, align 8, !tbaa !149
  %31 = getelementptr inbounds nuw %"class.icu_77::SimpleDateFormat", ptr %7, i32 0, i32 7
  store double %30, ptr %31, align 8, !tbaa !87
  %32 = getelementptr inbounds nuw %"class.icu_77::DateFormat", ptr %7, i32 0, i32 1
  %33 = load ptr, ptr %32, align 8, !tbaa !79
  %34 = load ptr, ptr %6, align 8, !tbaa !22
  %35 = call noundef i32 @_ZNK6icu_778Calendar3getE19UCalendarDateFieldsR10UErrorCode(ptr noundef nonnull align 8 dereferenceable(192) %33, i32 noundef 1, ptr noundef nonnull align 4 dereferenceable(4) %34)
  %36 = getelementptr inbounds nuw %"class.icu_77::SimpleDateFormat", ptr %7, i32 0, i32 11
  store i32 %35, ptr %36, align 4, !tbaa !88
  br label %37

37:                                               ; preds = %12, %17, %28, %19
  ret void
}

; Function Attrs: mustprogress uwtable
define void @_ZN6icu_7716SimpleDateFormat18set2DigitYearStartEdR10UErrorCode(ptr noundef nonnull align 8 dereferenceable(528) %0, double noundef %1, ptr noundef nonnull align 4 dereferenceable(4) %2) unnamed_addr #1 align 2 {
  %4 = alloca ptr, align 8
  %5 = alloca double, align 8
  %6 = alloca ptr, align 8
  store ptr %0, ptr %4, align 8, !tbaa !23
  store double %1, ptr %5, align 8, !tbaa !149
  store ptr %2, ptr %6, align 8, !tbaa !22
  %7 = load ptr, ptr %4, align 8
  %8 = load double, ptr %5, align 8, !tbaa !149
  %9 = load ptr, ptr %6, align 8, !tbaa !22
  call void @_ZN6icu_7716SimpleDateFormat26parseAmbiguousDatesAsAfterEdR10UErrorCode(ptr noundef nonnull align 8 dereferenceable(528) %7, double noundef %8, ptr noundef nonnull align 4 dereferenceable(4) %9)
  ret void
}